(dp0
S'boxes'
p1
(lp2
(I97
I101
I142
I145
tp3
a(I89
I104
I123
I142
tp4
a(I83
I87
I175
I178
tp5
a(I75
I80
I183
I189
tp6
a(I75
I83
I171
I183
tp7
a(I111
I115
I150
I151
tp8
a(I97
I101
I174
I175
tp9
a(I108
I111
I187
I189
tp10
a(I104
I108
I175
I178
tp11
a(I94
I104
I175
I183
tp12
a(I104
I111
I171
I175
tp13
a(I89
I92
I154
I158
tp14
a(I89
I92
I160
I164
tp15
a(I83
I89
I171
I175
tp16
a(I89
I94
I181
I183
tp17
a(I87
I89
I183
I187
tp18
a(I89
I92
I147
I151
tp19
a(I101
I104
I142
I151
tp20
a(I104
I111
I136
I147
tp21
a(I59
I89
I98
I171
tp22
a(I226
I230
I70
I73
tp23
a(I223
I226
I87
I93
tp24
a(I226
I230
I85
I87
tp25
a(I219
I223
I90
I93
tp26
a(I212
I219
I75
I82
tp27
a(I219
I223
I75
I79
tp28
a(I219
I226
I63
I75
tp29
a(I204
I212
I75
I87
tp30
a(I190
I204
I75
I93
tp31
a(I175
I219
I50
I75
tp32
a(I126
I130
I130
I136
tp33
a(I130
I133
I130
I134
tp34
a(I130
I133
I140
I142
tp35
a(I126
I141
I123
I130
tp36
a(I155
I159
I118
I121
tp37
a(I162
I173
I111
I115
tp38
a(I155
I162
I111
I118
tp39
a(I162
I166
I115
I118
tp40
a(I155
I159
I133
I134
tp41
a(I155
I159
I139
I142
tp42
a(I152
I155
I140
I142
tp43
a(I169
I173
I126
I127
tp44
a(I166
I169
I127
I130
tp45
a(I169
I173
I139
I140
tp46
a(I166
I169
I140
I142
tp47
a(I162
I166
I136
I142
tp48
a(I159
I162
I140
I142
tp49
a(I147
I155
I111
I123
tp50
a(I141
I150
I123
I127
tp51
a(I147
I155
I134
I136
tp52
a(I147
I152
I136
I142
tp53
a(I122
I126
I145
I147
tp54
a(I126
I133
I142
I147
tp55
a(I133
I141
I140
I147
tp56
a(I141
I147
I136
I147
tp57
a(I147
I169
I142
I147
tp58
a(I183
I187
I102
I105
tp59
a(I183
I187
I118
I121
tp60
a(I198
I202
I108
I109
tp61
a(I193
I195
I111
I115
tp62
a(I195
I198
I111
I118
tp63
a(I190
I195
I115
I118
tp64
a(I183
I187
I126
I127
tp65
a(I180
I183
I127
I130
tp66
a(I183
I190
I127
I136
tp67
a(I180
I183
I118
I123
tp68
a(I187
I190
I115
I127
tp69
a(I190
I198
I118
I123
tp70
a(I204
I209
I102
I105
tp71
a(I202
I204
I105
I109
tp72
a(I204
I212
I105
I111
tp73
a(I195
I204
I109
I111
tp74
a(I198
I219
I111
I123
tp75
a(I180
I183
I183
I187
tp76
a(I183
I187
I178
I183
tp77
a(I193
I195
I183
I187
tp78
a(I195
I198
I183
I189
tp79
a(I190
I195
I187
I189
tp80
a(I183
I190
I171
I178
tp81
a(I190
I195
I171
I175
tp82
a(I190
I198
I160
I171
tp83
a(I198
I202
I166
I171
tp84
a(I226
I230
I160
I163
tp85
a(I219
I223
I160
I163
tp86
a(I212
I219
I160
I164
tp87
a(I209
I212
I171
I178
tp88
a(I212
I216
I169
I171
tp89
a(I212
I219
I171
I183
tp90
a(I219
I223
I169
I171
tp91
a(I198
I212
I160
I166
tp92
a(I202
I209
I175
I178
tp93
a(I204
I212
I178
I183
tp94
a(I175
I180
I105
I109
tp95
a(I175
I180
I121
I123
tp96
a(I173
I175
I123
I127
tp97
a(I175
I183
I130
I136
tp98
a(I173
I175
I136
I140
tp99
a(I175
I190
I136
I171
tp100
a(I169
I175
I140
I147
tp101
a(I175
I183
I171
I183
tp102
a(I147
I175
I98
I111
tp103
a(I175
I183
I98
I105
tp104
a(I175
I190
I75
I98
tp105
a(I183
I190
I98
I102
tp106
a(I190
I195
I93
I98
tp107
a(I207
I209
I98
I102
tp108
a(I209
I212
I98
I105
tp109
a(I212
I216
I96
I98
tp110
a(I212
I219
I98
I111
tp111
a(I216
I219
I91
I98
tp112
a(I219
I226
I93
I98
tp113
a(I0
I175
I0
I98
tp114
a(I89
I147
I98
I123
tp115
a(I104
I126
I123
I136
tp116
a(I117
I122
I136
I140
tp117
a(I111
I117
I136
I142
tp118
a(I115
I117
I147
I151
tp119
a(I108
I117
I151
I154
tp120
a(I104
I117
I154
I171
tp121
a(I111
I117
I171
I183
tp122
a(I115
I117
I183
I187
tp123
a(I45
I50
I207
I211
tp124
a(I38
I42
I222
I223
tp125
a(I35
I38
I223
I226
tp126
a(I38
I45
I223
I232
tp127
a(I53
I57
I217
I219
tp128
a(I30
I38
I207
I214
tp129
a(I30
I35
I214
I226
tp130
a(I30
I38
I226
I232
tp131
a(I30
I45
I232
I243
tp132
a(I68
I72
I201
I204
tp133
a(I68
I72
I210
I211
tp134
a(I64
I68
I204
I207
tp135
a(I72
I75
I198
I201
tp136
a(I75
I80
I205
I207
tp137
a(I72
I75
I207
I211
tp138
a(I75
I80
I226
I236
tp139
a(I68
I75
I211
I219
tp140
a(I75
I83
I207
I226
tp141
a(I83
I87
I214
I219
tp142
a(I101
I104
I207
I214
tp143
a(I92
I94
I232
I236
tp144
a(I94
I97
I232
I238
tp145
a(I94
I101
I226
I232
tp146
a(I108
I111
I236
I238
tp147
a(I104
I108
I229
I238
tp148
a(I101
I104
I230
I232
tp149
a(I104
I108
I205
I219
tp150
a(I80
I89
I201
I207
tp151
a(I83
I89
I207
I214
tp152
a(I89
I94
I236
I238
tp153
a(I64
I68
I256
I260
tp154
a(I83
I87
I246
I247
tp155
a(I78
I80
I256
I260
tp156
a(I80
I83
I250
I263
tp157
a(I75
I80
I260
I263
tp158
a(I111
I115
I250
I254
tp159
a(I111
I115
I256
I260
tp160
a(I83
I89
I247
I268
tp161
a(I68
I72
I243
I250
tp162
a(I87
I89
I243
I247
tp163
a(I87
I97
I238
I243
tp164
a(I89
I111
I243
I268
tp165
a(I97
I104
I232
I243
tp166
a(I104
I111
I238
I243
tp167
a(I59
I68
I214
I219
tp168
a(I45
I75
I219
I243
tp169
a(I59
I68
I243
I256
tp170
a(I59
I64
I256
I263
tp171
a(I59
I83
I263
I268
tp172
a(I0
I59
I243
I291
tp173
a(I138
I141
I198
I207
tp174
a(I130
I133
I201
I205
tp175
a(I138
I141
I219
I230
tp176
a(I155
I159
I198
I204
tp177
a(I152
I155
I211
I214
tp178
a(I169
I173
I204
I205
tp179
a(I166
I169
I201
I207
tp180
a(I159
I166
I201
I205
tp181
a(I169
I173
I229
I230
tp182
a(I162
I169
I223
I232
tp183
a(I162
I166
I219
I223
tp184
a(I141
I147
I205
I207
tp185
a(I147
I152
I207
I214
tp186
a(I138
I147
I207
I219
tp187
a(I147
I159
I214
I219
tp188
a(I141
I145
I250
I253
tp189
a(I141
I145
I259
I260
tp190
a(I138
I141
I260
I263
tp191
a(I122
I126
I271
I275
tp192
a(I126
I133
I268
I280
tp193
a(I133
I141
I263
I268
tp194
a(I155
I162
I256
I260
tp195
a(I169
I173
I271
I272
tp196
a(I155
I159
I266
I268
tp197
a(I162
I169
I268
I280
tp198
a(I145
I147
I250
I254
tp199
a(I141
I147
I260
I268
tp200
a(I147
I155
I263
I268
tp201
a(I133
I138
I241
I247
tp202
a(I138
I141
I236
I243
tp203
a(I138
I147
I243
I250
tp204
a(I141
I162
I219
I243
tp205
a(I147
I162
I243
I256
tp206
a(I183
I187
I205
I207
tp207
a(I183
I187
I219
I222
tp208
a(I183
I190
I207
I219
tp209
a(I187
I190
I219
I238
tp210
a(I180
I183
I268
I275
tp211
a(I183
I187
I266
I268
tp212
a(I183
I190
I268
I280
tp213
a(I187
I190
I250
I268
tp214
a(I212
I216
I250
I256
tp215
a(I226
I230
I246
I247
tp216
a(I226
I230
I256
I259
tp217
a(I219
I226
I254
I268
tp218
a(I226
I230
I263
I268
tp219
a(I204
I212
I243
I256
tp220
a(I204
I219
I219
I243
tp221
a(I212
I226
I243
I250
tp222
a(I219
I223
I232
I243
tp223
a(I173
I175
I198
I201
tp224
a(I169
I175
I205
I207
tp225
a(I173
I175
I207
I219
tp226
a(I162
I175
I232
I263
tp227
a(I175
I180
I241
I260
tp228
a(I175
I180
I272
I275
tp229
a(I169
I175
I272
I280
tp230
a(I175
I183
I275
I280
tp231
a(I133
I162
I268
I291
tp232
a(I162
I190
I280
I291
tp233
a(I204
I219
I256
I291
tp234
a(I219
I226
I280
I291
tp235
a(I226
I230
I286
I291
tp236
a(I111
I117
I260
I268
tp237
a(I117
I122
I268
I275
tp238
a(I59
I117
I268
I291
tp239
a(I117
I126
I275
I280
tp240
a(I117
I133
I280
I291
tp241
a(I0
I30
I194
I243
tp242
a(I0
I59
I98
I194
tp243
a(I30
I53
I194
I207
tp244
a(I53
I59
I194
I205
tp245
a(I59
I64
I194
I201
tp246
a(I59
I75
I171
I194
tp247
a(I64
I68
I194
I198
tp248
a(I68
I72
I194
I197
tp249
a(I94
I97
I194
I201
tp250
a(I97
I101
I192
I194
tp251
a(I97
I104
I194
I207
tp252
a(I111
I117
I187
I194
tp253
a(I111
I133
I194
I201
tp254
a(I117
I175
I147
I194
tp255
a(I133
I136
I194
I198
tp256
a(I141
I147
I194
I198
tp257
a(I147
I155
I194
I201
tp258
a(I155
I178
I194
I198
tp259
a(I175
I180
I183
I194
tp260
a(I187
I190
I194
I207
tp261
a(I190
I198
I189
I194
tp262
a(I190
I204
I194
I291
tp263
a(I198
I204
I178
I194
tp264
a(I204
I219
I183
I194
tp265
a(I270
I274
I39
I43
tp266
a(I262
I285
I26
I39
tp267
a(I262
I270
I39
I45
tp268
a(I262
I267
I45
I48
tp269
a(I237
I241
I63
I66
tp270
a(I241
I245
I57
I63
tp271
a(I256
I260
I60
I61
tp272
a(I251
I253
I63
I67
tp273
a(I253
I256
I63
I70
tp274
a(I245
I248
I57
I61
tp275
a(I248
I253
I67
I70
tp276
a(I237
I241
I75
I82
tp277
a(I241
I245
I73
I75
tp278
a(I241
I248
I75
I87
tp279
a(I245
I248
I67
I75
tp280
a(I248
I256
I70
I75
tp281
a(I270
I274
I53
I54
tp282
a(I267
I270
I54
I57
tp283
a(I270
I277
I54
I63
tp284
a(I260
I262
I57
I61
tp285
a(I262
I270
I57
I63
tp286
a(I256
I262
I61
I75
tp287
a(I262
I277
I63
I75
tp288
a(I241
I253
I50
I57
tp289
a(I253
I256
I50
I54
tp290
a(I256
I260
I50
I53
tp291
a(I274
I277
I50
I54
tp292
a(I277
I282
I48
I50
tp293
a(I299
I303
I42
I45
tp294
a(I303
I306
I39
I45
tp295
a(I342
I346
I42
I43
tp296
a(I339
I342
I43
I45
tp297
a(I335
I339
I42
I45
tp298
a(I314
I328
I26
I30
tp299
a(I342
I346
I66
I67
tp300
a(I335
I339
I57
I67
tp301
a(I299
I306
I45
I50
tp302
a(I306
I335
I39
I50
tp303
a(I320
I335
I50
I75
tp304
a(I335
I342
I45
I50
tp305
a(I291
I314
I26
I33
tp306
a(I285
I291
I26
I37
tp307
a(I291
I299
I43
I50
tp308
a(I282
I291
I45
I50
tp309
a(I277
I291
I50
I75
tp310
a(I256
I260
I127
I130
tp311
a(I248
I251
I136
I140
tp312
a(I248
I256
I123
I134
tp313
a(I285
I289
I105
I108
tp314
a(I282
I285
I109
I111
tp315
a(I277
I282
I105
I111
tp316
a(I274
I277
I127
I136
tp317
a(I270
I277
I123
I127
tp318
a(I285
I289
I115
I127
tp319
a(I256
I262
I123
I127
tp320
a(I237
I241
I160
I163
tp321
a(I241
I245
I160
I164
tp322
a(I245
I256
I160
I166
tp323
a(I253
I256
I183
I187
tp324
a(I253
I256
I166
I171
tp325
a(I270
I274
I150
I164
tp326
a(I274
I277
I158
I160
tp327
a(I270
I274
I174
I178
tp328
a(I280
I282
I183
I187
tp329
a(I282
I285
I183
I189
tp330
a(I285
I289
I183
I187
tp331
a(I280
I282
I171
I175
tp332
a(I282
I289
I171
I183
tp333
a(I285
I289
I169
I171
tp334
a(I256
I262
I160
I175
tp335
a(I260
I262
I175
I187
tp336
a(I262
I265
I183
I187
tp337
a(I248
I256
I140
I147
tp338
a(I256
I267
I136
I147
tp339
a(I262
I270
I147
I166
tp340
a(I277
I285
I111
I147
tp341
a(I280
I282
I147
I151
tp342
a(I282
I285
I147
I171
tp343
a(I294
I296
I123
I127
tp344
a(I296
I299
I123
I130
tp345
a(I296
I306
I111
I123
tp346
a(I299
I303
I164
I169
tp347
a(I299
I303
I157
I160
tp348
a(I294
I296
I171
I175
tp349
a(I325
I328
I160
I166
tp350
a(I325
I328
I175
I183
tp351
a(I328
I335
I160
I183
tp352
a(I318
I320
I160
I164
tp353
a(I299
I306
I147
I151
tp354
a(I299
I320
I123
I147
tp355
a(I318
I320
I147
I158
tp356
a(I320
I335
I147
I160
tp357
a(I289
I291
I105
I109
tp358
a(I291
I296
I111
I115
tp359
a(I291
I294
I160
I164
tp360
a(I291
I296
I164
I166
tp361
a(I285
I291
I187
I189
tp362
a(I248
I291
I75
I98
tp363
a(I277
I291
I98
I105
tp364
a(I291
I306
I98
I111
tp365
a(I291
I320
I50
I98
tp366
a(I306
I320
I98
I123
tp367
a(I351
I357
I33
I37
tp368
a(I372
I376
I45
I48
tp369
a(I364
I369
I39
I43
tp370
a(I357
I378
I26
I39
tp371
a(I369
I378
I39
I45
tp372
a(I357
I361
I63
I66
tp373
a(I372
I376
I60
I61
tp374
a(I364
I369
I54
I57
tp375
a(I364
I372
I57
I70
tp376
a(I361
I364
I63
I70
tp377
a(I372
I376
I85
I87
tp378
a(I364
I369
I79
I82
tp379
a(I364
I372
I82
I87
tp380
a(I357
I361
I73
I75
tp381
a(I390
I393
I63
I67
tp382
a(I386
I390
I79
I87
tp383
a(I397
I400
I91
I93
tp384
a(I390
I393
I87
I93
tp385
a(I393
I397
I90
I93
tp386
a(I397
I404
I70
I75
tp387
a(I372
I378
I63
I75
tp388
a(I378
I383
I70
I75
tp389
a(I376
I378
I75
I79
tp390
a(I378
I386
I75
I82
tp391
a(I353
I357
I48
I50
tp392
a(I376
I378
I45
I50
tp393
a(I378
I383
I50
I54
tp394
a(I383
I386
I50
I57
tp395
a(I386
I393
I50
I63
tp396
a(I409
I411
I75
I79
tp397
a(I418
I421
I45
I50
tp398
a(I421
I435
I26
I50
tp399
a(I435
I463
I0
I50
tp400
a(I406
I435
I0
I26
tp401
a(I378
I406
I0
I50
tp402
a(I406
I421
I26
I45
tp403
a(I406
I411
I45
I50
tp404
a(I406
I409
I50
I54
tp405
a(I393
I406
I50
I70
tp406
a(I406
I411
I82
I91
tp407
a(I386
I390
I109
I115
tp408
a(I400
I404
I108
I109
tp409
a(I386
I390
I130
I145
tp410
a(I400
I404
I139
I140
tp411
a(I393
I397
I126
I127
tp412
a(I393
I400
I127
I130
tp413
a(I393
I397
I130
I133
tp414
a(I390
I393
I130
I134
tp415
a(I386
I393
I115
I130
tp416
a(I400
I404
I111
I126
tp417
a(I378
I383
I102
I105
tp418
a(I372
I376
I183
I187
tp419
a(I364
I376
I171
I183
tp420
a(I397
I400
I151
I154
tp421
a(I393
I397
I157
I160
tp422
a(I386
I390
I181
I183
tp423
a(I400
I404
I183
I187
tp424
a(I390
I393
I175
I183
tp425
a(I378
I383
I147
I164
tp426
a(I378
I386
I105
I147
tp427
a(I383
I386
I147
I151
tp428
a(I409
I411
I123
I127
tp429
a(I414
I418
I163
I166
tp430
a(I411
I414
I178
I183
tp431
a(I414
I421
I166
I183
tp432
a(I418
I421
I147
I166
tp433
a(I404
I406
I105
I109
tp434
a(I400
I406
I109
I111
tp435
a(I406
I411
I130
I160
tp436
a(I404
I406
I136
I140
tp437
a(I400
I406
I140
I154
tp438
a(I397
I406
I154
I160
tp439
a(I406
I409
I160
I164
tp440
a(I393
I406
I160
I183
tp441
a(I364
I378
I87
I98
tp442
a(I378
I381
I98
I102
tp443
a(I378
I383
I93
I98
tp444
a(I393
I400
I93
I98
tp445
a(I400
I404
I96
I98
tp446
a(I400
I406
I98
I105
tp447
a(I418
I463
I50
I147
tp448
a(I262
I378
I0
I26
tp449
a(I328
I357
I26
I33
tp450
a(I342
I348
I43
I50
tp451
a(I348
I353
I45
I50
tp452
a(I335
I348
I50
I57
tp453
a(I348
I364
I50
I63
tp454
a(I339
I348
I57
I61
tp455
a(I348
I353
I67
I70
tp456
a(I335
I348
I67
I75
tp457
a(I348
I357
I70
I75
tp458
a(I348
I364
I75
I98
tp459
a(I320
I348
I75
I147
tp460
a(I348
I378
I98
I171
tp461
a(I253
I256
I211
I214
tp462
a(I248
I253
I205
I214
tp463
a(I241
I245
I229
I232
tp464
a(I251
I253
I226
I230
tp465
a(I256
I260
I232
I236
tp466
a(I245
I248
I230
I232
tp467
a(I248
I256
I232
I238
tp468
a(I241
I253
I219
I223
tp469
a(I248
I260
I214
I219
tp470
a(I267
I270
I207
I214
tp471
a(I285
I289
I197
I198
tp472
a(I277
I280
I207
I211
tp473
a(I270
I274
I222
I223
tp474
a(I267
I270
I226
I230
tp475
a(I270
I277
I223
I226
tp476
a(I274
I285
I219
I223
tp477
a(I277
I282
I217
I219
tp478
a(I285
I289
I219
I222
tp479
a(I262
I270
I219
I226
tp480
a(I253
I262
I219
I232
tp481
a(I262
I267
I226
I232
tp482
a(I237
I241
I259
I260
tp483
a(I245
I248
I254
I256
tp484
a(I285
I289
I250
I253
tp485
a(I280
I282
I256
I260
tp486
a(I280
I282
I280
I284
tp487
a(I282
I285
I280
I286
tp488
a(I285
I289
I278
I280
tp489
a(I274
I282
I284
I286
tp490
a(I235
I241
I243
I247
tp491
a(I311
I314
I230
I232
tp492
a(I314
I318
I217
I219
tp493
a(I320
I325
I198
I201
tp494
a(I320
I328
I201
I207
tp495
a(I318
I335
I207
I219
tp496
a(I314
I320
I219
I232
tp497
a(I309
I311
I250
I254
tp498
a(I309
I311
I256
I260
tp499
a(I296
I299
I272
I275
tp500
a(I299
I306
I268
I280
tp501
a(I311
I314
I268
I275
tp502
a(I314
I320
I268
I286
tp503
a(I311
I320
I232
I268
tp504
a(I291
I299
I198
I214
tp505
a(I285
I291
I198
I219
tp506
a(I291
I296
I214
I219
tp507
a(I289
I291
I247
I250
tp508
a(I289
I299
I275
I280
tp509
a(I253
I256
I295
I298
tp510
a(I260
I267
I295
I298
tp511
a(I262
I270
I298
I304
tp512
a(I248
I262
I298
I316
tp513
a(I262
I277
I304
I316
tp514
a(I314
I318
I298
I302
tp515
a(I323
I325
I298
I302
tp516
a(I325
I328
I298
I304
tp517
a(I342
I346
I311
I314
tp518
a(I342
I346
I319
I320
tp519
a(I342
I346
I328
I332
tp520
a(I335
I339
I320
I323
tp521
a(I328
I332
I314
I316
tp522
a(I314
I320
I302
I304
tp523
a(I306
I320
I304
I316
tp524
a(I320
I325
I308
I311
tp525
a(I320
I328
I311
I316
tp526
a(I335
I342
I323
I339
tp527
a(I291
I335
I316
I339
tp528
a(I237
I241
I280
I291
tp529
a(I241
I245
I289
I291
tp530
a(I248
I253
I291
I298
tp531
a(I265
I267
I291
I295
tp532
a(I267
I270
I291
I298
tp533
a(I270
I277
I291
I304
tp534
a(I270
I285
I286
I291
tp535
a(I277
I306
I291
I316
tp536
a(I285
I311
I280
I291
tp537
a(I306
I314
I291
I304
tp538
a(I318
I320
I286
I295
tp539
a(I320
I328
I291
I298
tp540
a(I328
I335
I291
I308
tp541
a(I372
I376
I238
I241
tp542
a(I364
I372
I219
I238
tp543
a(I364
I376
I207
I219
tp544
a(I372
I376
I219
I226
tp545
a(I383
I386
I205
I207
tp546
a(I381
I383
I232
I236
tp547
a(I383
I400
I207
I219
tp548
a(I393
I404
I219
I226
tp549
a(I400
I404
I214
I219
tp550
a(I369
I372
I260
I263
tp551
a(I364
I367
I250
I254
tp552
a(I364
I369
I254
I263
tp553
a(I372
I376
I278
I284
tp554
a(I364
I372
I263
I286
tp555
a(I386
I390
I260
I263
tp556
a(I386
I393
I256
I260
tp557
a(I397
I400
I280
I284
tp558
a(I400
I404
I280
I283
tp559
a(I393
I397
I271
I272
tp560
a(I390
I400
I272
I280
tp561
a(I393
I397
I280
I286
tp562
a(I397
I400
I268
I272
tp563
a(I376
I378
I268
I275
tp564
a(I364
I369
I238
I247
tp565
a(I381
I383
I243
I247
tp566
a(I383
I393
I219
I243
tp567
a(I383
I400
I243
I256
tp568
a(I393
I400
I226
I243
tp569
a(I409
I411
I226
I230
tp570
a(I409
I411
I232
I236
tp571
a(I409
I411
I219
I223
tp572
a(I409
I411
I256
I260
tp573
a(I411
I414
I256
I263
tp574
a(I426
I429
I256
I260
tp575
a(I421
I429
I254
I256
tp576
a(I421
I426
I256
I266
tp577
a(I414
I418
I280
I289
tp578
a(I418
I421
I272
I284
tp579
a(I414
I421
I254
I268
tp580
a(I438
I440
I256
I260
tp581
a(I438
I440
I268
I272
tp582
a(I440
I443
I268
I275
tp583
a(I440
I450
I256
I268
tp584
a(I443
I450
I268
I280
tp585
a(I433
I440
I272
I275
tp586
a(I429
I443
I275
I280
tp587
a(I409
I429
I243
I247
tp588
a(I429
I435
I243
I250
tp589
a(I435
I450
I243
I256
tp590
a(I400
I406
I198
I201
tp591
a(I393
I406
I201
I207
tp592
a(I400
I406
I207
I214
tp593
a(I404
I411
I260
I263
tp594
a(I406
I414
I263
I272
tp595
a(I400
I406
I263
I280
tp596
a(I357
I361
I298
I304
tp597
a(I372
I376
I301
I302
tp598
a(I369
I372
I304
I311
tp599
a(I372
I376
I323
I326
tp600
a(I351
I353
I316
I320
tp601
a(I353
I372
I316
I328
tp602
a(I357
I361
I314
I316
tp603
a(I361
I372
I311
I316
tp604
a(I386
I390
I304
I307
tp605
a(I397
I400
I308
I311
tp606
a(I393
I397
I302
I304
tp607
a(I393
I397
I323
I326
tp608
a(I386
I393
I323
I328
tp609
a(I390
I400
I316
I323
tp610
a(I393
I400
I311
I316
tp611
a(I400
I404
I316
I320
tp612
a(I376
I378
I295
I302
tp613
a(I372
I378
I302
I323
tp614
a(I378
I386
I304
I316
tp615
a(I400
I404
I352
I356
tp616
a(I357
I361
I337
I339
tp617
a(I364
I369
I337
I339
tp618
a(I372
I376
I337
I339
tp619
a(I378
I383
I337
I339
tp620
a(I378
I400
I339
I363
tp621
a(I386
I390
I337
I339
tp622
a(I390
I400
I334
I339
tp623
a(I414
I418
I301
I304
tp624
a(I421
I426
I295
I298
tp625
a(I418
I429
I298
I304
tp626
a(I414
I418
I355
I358
tp627
a(I418
I421
I352
I358
tp628
a(I414
I421
I358
I363
tp629
a(I414
I421
I339
I352
tp630
a(I414
I435
I304
I339
tp631
a(I421
I435
I339
I363
tp632
a(I404
I406
I295
I302
tp633
a(I406
I409
I304
I308
tp634
a(I400
I406
I304
I316
tp635
a(I404
I406
I328
I332
tp636
a(I400
I406
I356
I363
tp637
a(I406
I411
I361
I363
tp638
a(I378
I435
I363
I386
tp639
a(I357
I364
I291
I298
tp640
a(I364
I367
I291
I295
tp641
a(I364
I369
I286
I291
tp642
a(I378
I393
I291
I304
tp643
a(I383
I386
I284
I291
tp644
a(I386
I393
I280
I291
tp645
a(I406
I411
I291
I302
tp646
a(I411
I414
I286
I291
tp647
a(I424
I426
I291
I295
tp648
a(I426
I429
I291
I298
tp649
a(I426
I450
I280
I291
tp650
a(I429
I435
I291
I304
tp651
a(I435
I463
I291
I386
tp652
a(I450
I463
I243
I291
tp653
a(I320
I348
I219
I291
tp654
a(I348
I357
I291
I308
tp655
a(I335
I348
I291
I311
tp656
a(I346
I348
I320
I323
tp657
a(I348
I353
I320
I326
tp658
a(I348
I353
I332
I334
tp659
a(I342
I348
I332
I339
tp660
a(I348
I357
I334
I339
tp661
a(I291
I378
I339
I386
tp662
a(I253
I256
I194
I198
tp663
a(I260
I262
I189
I205
tp664
a(I267
I270
I194
I201
tp665
a(I274
I277
I189
I194
tp666
a(I277
I282
I192
I194
tp667
a(I277
I285
I194
I205
tp668
a(I289
I291
I189
I194
tp669
a(I291
I296
I192
I194
tp670
a(I323
I325
I194
I198
tp671
a(I325
I328
I194
I201
tp672
a(I325
I335
I183
I194
tp673
a(I328
I335
I194
I207
tp674
a(I335
I348
I147
I219
tp675
a(I348
I364
I171
I291
tp676
a(I364
I372
I183
I207
tp677
a(I372
I376
I189
I205
tp678
a(I386
I393
I194
I207
tp679
a(I386
I400
I183
I194
tp680
a(I393
I400
I194
I201
tp681
a(I400
I404
I189
I198
tp682
a(I411
I421
I183
I194
tp683
a(I411
I463
I194
I243
tp684
a(I421
I463
I147
I194
tp685
a(I175
I262
I0
I50
tp686
a(I219
I241
I50
I63
tp687
a(I232
I237
I63
I67
tp688
a(I226
I232
I63
I70
tp689
a(I232
I237
I79
I82
tp690
a(I230
I241
I82
I87
tp691
a(I226
I248
I87
I98
tp692
a(I219
I277
I98
I123
tp693
a(I232
I248
I123
I147
tp694
a(I190
I232
I123
I160
tp695
a(I232
I262
I147
I160
tp696
a(I223
I232
I166
I171
tp697
a(I232
I245
I169
I171
tp698
a(I219
I232
I171
I194
tp699
a(I232
I248
I171
I219
tp700
a(I204
I232
I194
I219
tp701
a(I219
I241
I219
I232
tp702
a(I226
I232
I232
I236
tp703
a(I232
I248
I232
I243
tp704
a(I232
I237
I247
I250
tp705
a(I226
I232
I247
I256
tp706
a(I230
I232
I272
I275
tp707
a(I219
I237
I275
I280
tp708
a(I226
I232
I280
I284
tp709
a(I232
I237
I289
I291
tp710
a(I232
I248
I291
I316
tp711
a(I0
I232
I291
I386
tp712
a(I232
I291
I316
I386
tp713
asS'adj'
p714
(dp715
g453
(lp716
g452
ag454
ag305
ag451
ag304
ag301
ag455
asg499
(lp717
(I311
I320
I243
I256
tp718
ag504
asg653
(lp719
g652
ag590
ag584
ag585
ag650
asg419
(lp720
g420
ag677
asg339
(lp721
g340
ag338
asg505
(lp722
g506
ag507
asg627
(lp723
g629
ag628
asg234
(lp724
g263
ag218
ag220
ag215
ag708
as(I133
I147
I268
I291
tp725
(lp726
g201
asg104
(lp727
g105
ag103
ag106
ag59
ag95
asg351
(lp728
g673
ag352
asg549
(lp729
g548
ag550
ag567
ag569
asg77
(lp730
g76
ag102
ag81
asg561
(lp731
g645
ag562
ag558
ag596
ag560
ag563
asg382
(lp732
g406
ag396
asg179
(lp733
g180
ag225
asg580
(lp734
g576
ag577
ag574
ag595
asg703
(lp735
g704
ag702
asg91
(lp736
g90
ag699
ag697
asg655
(lp737
g654
ag656
ag676
ag640
ag597
asg477
(lp738
g478
ag476
ag474
ag479
asg444
(lp739
g443
ag442
asg222
(lp740
g221
ag223
ag220
ag215
a(I226
I232
I250
I256
tp741
ag216
asg434
(lp742
g447
ag435
ag409
asg394
(lp743
g393
ag402
ag395
asg315
(lp744
g341
ag316
asg64
(lp745
g69
ag70
ag63
ag62
asg614
(lp746
g615
ag598
ag613
ag599
ag604
ag602
ag600
asg217
(lp747
g706
ag218
asg633
(lp748
g646
asg210
(lp749
g209
a(I190
I204
I194
I219
tp750
ag263
ag208
asg13
(lp751
g121
ag12
ag122
ag11
asg280
(lp752
g279
ag363
ag276
ag281
ag278
asg122
(lp753
g121
ag123
ag13
asg161
(lp754
g165
a(I89
I117
I268
I291
tp755
ag239
ag157
ag155
ag163
ag157
ag172
asg170
(lp756
g173
ag169
ag171
ag154
ag162
as(I230
I232
I82
I87
tp757
(lp758
g690
asg144
(lp759
g146
ag145
ag153
asg237
(lp760
g238
ag239
ag165
ag160
asg667
(lp761
g668
ag666
as(I383
I393
I207
I219
tp762
(lp763
g592
asg427
(lp764
g426
ag428
ag408
ag418
ag408
ag416
ag416
ag410
ag410
asg691
(lp765
g692
ag25
ag692
ag279
ag690
ag277
asg313
(lp766
g693
ag694
ag320
ag311
asg554
(lp767
g555
ag555
asg492
(lp768
g504
ag497
asg166
(lp769
g165
ag167
ag146
ag149
ag145
ag164
asg139
(lp770
g169
ag141
asg333
(lp771
g343
ag334
ag329
ag330
ag331
ag332
asg297
(lp772
g296
ag451
ag305
ag298
asg29
(lp773
g27
ag28
ag32
ag687
ag689
ag23
asg319
(lp774
g341
ag341
as(I256
I262
I298
I304
tp775
(lp776
g510
asg265
(lp777
g701
ag264
ag699
ag94
ag90
asg335
(lp778
g340
ag696
ag323
ag325
ag336
asg123
(lp779
g122
ag253
asg287
(lp780
g286
ag288
ag363
ag272
ag285
ag274
ag281
asg457
(lp781
g456
ag458
ag460
ag301
ag300
asg68
(lp782
g60
ag96
asg559
(lp783
g596
ag558
asg399
(lp784
g448
ag400
ag401
ag403
ag398
asg301
(lp785
g304
ag453
ag455
ag457
asg192
(lp786
g193
ag240
ag238
asg442
(lp787
g461
ag443
ag444
ag380
ag378
as(I162
I175
I280
I291
tp788
(lp789
g231
asg24
(lp790
g25
ag692
ag113
ag26
asg508
(lp791
g485
asg314
(lp792
g364
ag358
asg668
(lp793
g666
ag667
ag472
asg101
(lp794
g100
ag47
ag58
ag46
ag99
asg216
(lp795
g222
ag706
asg98
(lp796
g99
ag100
ag67
ag66
as(I393
I400
I183
I194
tp797
(lp798
g425
asg409
(lp799
g435
ag434
asg112
(lp800
g111
ag693
ag26
ag113
ag110
asg20
(lp801
g21
ag4
ag3
asg38
(lp802
g39
ag103
ag40
asg584
(lp803
g582
ag583
ag585
ag653
ag581
asg277
(lp804
g278
ag279
ag691
ag690
asg89
(lp805
g88
ag90
asg258
(lp806
g257
ag259
ag177
asg551
(lp807
g555
ag553
asg509
(lp808
g537
ag489
ag537
ag500
asg286
(lp809
g285
ag287
ag288
ag284
ag283
asg147
(lp810
g167
ag148
asg520
(lp811
g527
ag660
asg244
(lp812
g243
ag242
ag129
ag124
ag245
asg604
(lp813
(I372
I378
I316
I323
tp814
ag603
ag614
ag599
asg327
(lp815
g326
asg379
(lp816
g459
ag380
asg401
(lp817
g402
ag400
ag403
ag399
asg452
(lp818
g451
ag453
ag454
ag392
asg214
(lp819
g213
a(I190
I204
I268
I291
tp820
ag263
ag212
asg666
(lp821
g668
ag667
asg602
(lp822
g603
ag601
ag658
ag658
ag614
ag600
asg377
(lp823
g376
ag373
asg359
(lp824
g365
ag346
asg556
(lp825
g557
asg370
(lp826
g371
ag372
asg591
(lp827
g592
ag681
ag682
asg688
(lp828
g689
ag687
ag270
as(I335
I348
I147
I194
tp829
(lp830
g674
as(I232
I237
I275
I280
tp831
(lp832
g707
asg137
(lp833
g138
ag141
ag151
asg140
(lp834
g169
a(I75
I83
I219
I226
tp835
ag141
ag168
ag134
ag138
asg66
(lp836
g65
ag67
ag98
as(I141
I147
I219
I243
tp837
(lp838
g188
asg357
(lp839
g460
ag356
ag353
ag675
ag350
asg645
(lp840
g562
ag561
ag644
asg680
(lp841
g679
ag681
ag423
ag425
ag441
ag424
ag682
asg28
(lp842
g29
ag27
asg195
(lp843
g227
ag206
asg417
(lp844
g435
asg446
(lp845
g447
ag445
asg709
(lp846
g708
ag235
asg71
(lp847
g72
ag73
ag109
ag108
asg58
(lp848
g57
ag53
ag43
ag42
ag49
ag101
ag48
ag47
asg506
(lp849
g505
ag507
ag479
ag472
asg10
(lp850
g253
as(I450
I463
I243
I268
tp851
(lp852
g585
as(I232
I262
I316
I339
tp853
(lp854
g514
asg612
(lp855
g611
ag635
ag610
asg603
(lp856
g602
ag604
asg150
(lp857
g252
ag143
as(I162
I175
I232
I243
tp858
(lp859
g206
asg154
(lp860
g170
ag171
asg300
(lp861
(I335
I342
I67
I75
tp862
ag457
asg145
(lp863
g146
ag166
ag164
ag144
ag153
asg263
(lp864
g262
ag264
ag701
ag221
ag261
ag209
ag210
ag220
ag234
ag214
ag213
ag233
asg27
(lp865
g32
ag29
ag28
ag30
asg245
(lp866
g247
ag246
ag244
asg80
(lp867
g262
ag79
ag78
asg223
(lp868
g222
ag221
ag702
asg213
(lp869
g212
ag214
ag263
ag233
ag211
ag231
asg352
(lp870
g675
ag350
ag675
ag673
ag351
asg631
(lp871
g630
ag632
ag652
ag624
ag626
ag626
ag651
asg388
(lp872
g389
ag390
ag376
asg485
(lp873
g508
as(I372
I378
I302
I304
tp874
(lp875
g599
asg475
(lp876
g476
ag480
ag482
asg673
(lp877
g671
ag672
ag674
ag675
ag351
ag352
asg206
(lp878
g205
ag858
ag204
ag199
ag227
ag195
asg490
(lp879
g535
ag535
ag488
ag487
asg320
(lp880
g313
ag311
asg689
(lp881
g688
ag687
ag29
ag23
asg532
(lp882
g533
ag511
asg461
(lp883
g460
ag675
ag459
ag442
ag443
ag418
ag426
ag676
ag420
asg264
(lp884
g263
ag701
ag94
ag265
ag93
ag79
ag262
as(I291
I348
I339
I386
tp885
(lp886
g661
asg129
(lp887
g242
ag244
ag130
asg677
(lp888
g676
ag420
ag419
ag678
ag676
ag544
ag678
asg503
(lp889
g654
ag504
ag502
ag539
asg577
(lp890
g580
ag576
ag575
asg126
(lp891
g125
ag127
ag131
ag130
asg218
(lp892
g234
ag706
ag217
ag219
asg39
(lp893
g38
ag40
ag103
ag50
ag37
asg311
(lp894
g313
ag320
asg643
(lp895
g644
ag613
ag607
ag615
ag605
asg141
(lp896
g138
ag140
ag137
ag151
ag152
ag142
ag169
ag139
asg507
(lp897
g506
ag505
asg249
(lp898
g248
asg428
(lp899
g427
ag426
asg690
(lp900
g757
ag691
ag277
asg702
(lp901
g701
ag221
ag223
ag703
ag700
ag704
ag469
ag464
asg718
(lp902
g499
as(I187
I190
I115
I118
tp903
(lp904
g60
asg393
(lp905
g394
ag372
ag369
asg172
(lp906
g239
ag171
ag161
ag158
ag157
asg22
(lp907
g114
ag243
ag115
ag4
ag19
ag14
ag247
ag7
asg36
(lp908
g115
ag116
ag33
ag34
ag51
asg589
(lp909
g684
ag590
ag588
asg207
(lp910
g209
ag261
asg439
(lp911
g440
ag441
ag421
ag438
ag422
asg173
(lp912
g712
ag170
ag171
ag242
ag132
asg72
(lp913
g71
ag73
ag74
ag61
asg254
(lp914
g253
ag255
ag256
ag175
asg466
(lp915
g481
ag468
asg706
(lp916
g705
ag217
ag216
ag218
asg6
(lp917
g247
ag7
asg414
(lp918
g415
ag413
asg224
(lp919
g259
asg500
(lp920
g501
ag509
as(I232
I241
I219
I232
tp921
(lp922
g701
as(I320
I348
I75
I98
tp923
(lp924
g367
asg97
(lp925
g96
ag44
asg651
(lp926
g650
ag652
ag631
ag649
ag626
asg657
(lp927
g658
ag519
asg44
(lp928
g45
ag97
asg255
(lp929
g254
ag256
ag119
ag120
ag102
ag54
asg620
(lp930
g621
asg164
(lp931
g163
ag165
ag166
ag153
ag145
asg248
(lp932
g247
ag249
ag246
asg167
(lp933
g166
ag148
ag147
asg103
(lp934
g114
ag105
ag104
ag95
ag115
ag50
ag39
ag38
asg693
(lp935
g112
ag113
ag692
ag695
ag111
ag75
ag692
ag363
ag694
ag313
ag318
ag364
ag316
asg283
(lp936
g282
ag284
ag286
asg229
(lp937
g230
ag231
ag211
asg84
(lp938
g83
ag92
as(I411
I435
I194
I219
tp939
(lp940
g572
asg555
(lp941
g553
ag551
ag676
ag554
ag554
ag642
asg462
(lp942
(I256
I260
I214
I219
tp943
ag470
ag463
asg142
(lp944
g141
ag152
asg386
(lp945
g385
ag445
ag384
asg597
(lp946
g655
ag640
asg750
(lp947
g210
asg100
(lp948
g99
ag101
ag98
ag67
ag102
ag81
ag695
ag83
asg275
(lp949
g289
ag271
asg132
(lp950
g173
ag131
ag127
asg228
(lp951
g227
asg575
(lp952
g576
ag577
asg565
(lp953
g676
ag543
ag676
asg120
(lp954
g255
ag121
ag8
ag119
asg304
(lp955
g303
ag305
ag366
ag460
ag453
ag301
asg92
(lp956
g695
ag83
ag84
ag695
ag87
asg155
(lp957
g161
ag163
asg679
(lp958
g680
ag681
ag592
ag548
ag546
asg700
(lp959
g699
ag701
ag698
ag702
ag469
ag463
asg93
(lp960
g264
ag94
ag88
asg695
(lp961
g694
ag696
ag70
ag75
ag69
ag67
ag75
ag693
ag100
ag83
ag92
ag92
ag87
ag86
ag85
asg675
(lp962
g461
ag676
ag460
ag357
ag352
ag352
ag673
ag676
ag654
ag674
ag496
asg110
(lp963
g109
ag111
ag112
asg712
(lp964
g710
ag711
ag713
ag173
ag239
ag241
ag232
asg372
(lp965
g371
ag370
ag369
ag393
asg363
(lp966
g693
ag364
ag366
ag280
ag281
ag287
ag279
ag692
ag288
ag310
asg465
(lp967
(I253
I256
I219
I226
tp968
ag481
asg683
(lp969
g684
ag685
ag431
ag432
asg408
(lp970
g427
ag427
ag416
asg670
(lp971
g669
asg701
(lp972
g700
ag921
ag264
ag265
ag699
ag263
ag221
ag702
asg660
(lp973
g659
ag661
ag527
ag520
asg512
(lp974
g513
ag514
ag534
ag511
ag533
asg19
(lp975
g22
asg73
(lp976
g72
ag74
ag75
ag111
ag71
ag109
asg136
(lp977
g133
asg644
(lp978
g643
ag645
asg184
(lp979
g205
ag183
asg650
(lp980
g648
ag649
ag651
ag587
ag653
ag587
ag585
asg441
(lp981
g440
ag422
ag439
ag425
ag680
ag424
asg392
(lp982
g454
ag452
asg402
(lp983
g401
ag403
ag394
ag395
ag449
ag371
as(I400
I406
I263
I268
tp984
(lp985
g563
asg238
(lp986
g237
ag239
ag240
ag192
as(I414
I421
I254
I256
tp987
(lp988
g574
asg260
(lp989
g259
ag102
ag76
asg108
(lp990
g109
ag71
asg376
(lp991
g377
ag374
ag375
ag388
asg296
(lp992
g297
ag451
asg623
(lp993
g622
as(I306
I311
I280
I291
tp994
(lp995
g501
asg513
(lp996
g512
ag514
ag713
ag711
ag531
ag510
ag511
asg171
(lp997
g173
ag170
ag172
ag154
as(I87
I89
I238
I243
tp998
(lp999
g153
as(I59
I75
I263
I268
tp1000
(lp1001
g158
asg338
(lp1002
g696
ag339
ag312
asg325
(lp1003
(I256
I262
I171
I175
tp1004
ag335
ag323
asg273
(lp1005
g274
ag276
as(I383
I393
I219
I232
tp1006
(lp1007
g547
asg681
(lp1008
g680
a(I400
I404
I189
I194
tp1009
ag679
ag592
ag682
ag591
asg16
(lp1010
g7
ag5
asg568
(lp1011
g567
ag569
ag557
ag566
asg686
(lp1012
g114
ag32
ag687
ag687
ag289
ag449
ag267
asg204
(lp1013
g203
ag205
ag206
ag202
ag189
ag199
asg11
(lp1014
g12
ag13
asg111
(lp1015
g110
ag112
ag693
ag75
ag109
ag73
asg661
(lp1016
g660
ag885
ag662
ag617
ag659
asg279
(lp1017
g278
ag280
ag363
ag692
ag277
ag691
asg431
(lp1018
g683
ag432
asg114
(lp1019
g243
ag22
ag115
ag103
ag686
ag32
as(I204
I219
I111
I123
tp1020
(lp1021
g74
asg135
(lp1022
g133
asg289
(lp1023
g686
ag687
ag271
ag275
ag290
asg445
(lp1024
g447
ag446
ag386
ag384
asg415
(lp1025
g413
ag414
ag416
ag410
asg450
(lp1026
g449
ag299
ag449
ag371
ag368
asg187
(lp1027
g186
ag188
ag176
ag205
ag174
ag185
asg498
(lp1028
(I311
I314
I243
I250
tp1029
ag504
asg153
(lp1030
g998
ag164
ag145
ag144
asg157
(lp1031
g161
ag161
ag172
ag156
ag158
as(I256
I262
I61
I63
tp1032
(lp1033
g274
asg647
(lp1034
g646
ag578
asg493
(lp1035
g497
ag496
asg547
(lp1036
g1006
ag567
asg128
(lp1037
g169
asg299
(lp1038
g449
ag306
ag449
ag450
asg583
(lp1039
g584
ag585
ag587
ag582
ag586
asg710
(lp1040
g712
ag711
ag529
asg94
(lp1041
g264
ag265
ag90
ag93
ag88
asg540
(lp1042
g654
ag539
ag541
ag516
asg522
(lp1043
g528
ag526
asg293
(lp1044
g292
ag310
ag309
asg342
(lp1045
g341
ag343
asg398
(lp1046
g448
ag399
ag403
asg34
(lp1047
g36
ag33
as(I378
I406
I363
I386
tp1048
(lp1049
g638
asg305
(lp1050
g304
ag453
ag451
ag298
ag297
asg820
(lp1051
g214
asg678
(lp1052
g677
ag677
asg138
(lp1053
g137
ag141
ag140
ag134
asg1004
(lp1054
g325
asg835
(lp1055
g140
as(I195
I198
I109
I111
tp1056
(lp1057
g61
as(I141
I147
I123
I127
tp1058
(lp1059
g50
asg322
(lp1060
g321
ag323
asg59
(lp1061
g104
ag106
asg261
(lp1062
g262
ag263
ag209
ag207
as(I198
I204
I178
I183
tp1063
(lp1064
g79
asg329
(lp1065
g333
ag330
asg124
(lp1066
g244
as(I411
I414
I219
I226
tp1067
(lp1068
g570
asg755
(lp1069
g161
asg61
(lp1070
g1056
ag74
ag72
asg354
(lp1071
g355
asg232
(lp1072
g712
ag194
ag200
ag193
ag241
ag201
ag197
ag198
ag233
asg253
(lp1073
g254
ag10
ag123
asg649
(lp1074
g650
ag651
ag626
ag648
ag625
asg233
(lp1075
g232
ag198
ag230
ag263
ag231
ag213
asg198
(lp1076
g232
ag233
ag196
asg624
(lp1077
g631
ag626
asg574
(lp1078
g987
ag580
ag595
ag573
ag594
asg708
(lp1079
g234
ag235
ag709
ag707
ag529
asg705
(lp1080
g706
ag491
as(I80
I83
I250
I256
tp1081
(lp1082
g156
asg538
(lp1083
g537
ag536
ag524
ag515
asg227
(lp1084
g228
ag183
ag206
ag195
as(I418
I421
I272
I280
tp1085
(lp1086
g578
asg270
(lp1087
g687
ag271
ag688
asg159
(lp1088
g165
asg341
(lp1089
g342
ag316
ag315
ag319
ag318
ag317
ag319
asg553
(lp1090
g552
ag555
ag551
asg215
(lp1091
g234
ag220
ag222
asg274
(lp1092
g1032
ag287
ag281
ag273
ag276
asg343
(lp1093
g332
ag333
ag342
ag334
asg491
(lp1094
g704
ag705
asg81
(lp1095
g100
ag83
ag82
ag102
ag77
asg550
(lp1096
g549
ag548
ag593
asg632
(lp1097
g631
a(I435
I463
I291
I339
tp1098
ag652
ag630
ag628
asg201
(lp1099
g200
ag725
ag232
ag197
asg443
(lp1100
g442
ag444
ag461
ag418
asg621
(lp1101
g620
ag622
ag662
ag639
ag616
ag637
asg220
(lp1102
g221
ag263
ag234
ag222
ag215
asg82
(lp1103
g83
ag81
asg252
(lp1104
g251
ag150
ag143
ag250
asg143
(lp1105
g150
ag252
asg658
(lp1106
g657
ag602
ag601
ag602
asg174
(lp1107
g187
ag257
ag185
asg571
(lp1108
(I411
I421
I219
I232
tp1109
ag684
asg671
(lp1110
g673
ag672
ag494
asg17
(lp1111
g18
ag12
asg46
(lp1112
g47
ag101
ag99
asg694
(lp1113
g695
ag696
ag693
ag313
ag312
asg862
(lp1114
g300
asg225
(lp1115
g226
ag179
asg385
(lp1116
g386
ag383
asg18
(lp1117
g17
asg659
(lp1118
g660
ag661
asg14
(lp1119
g22
asg236
(lp1120
g235
asg165
(lp1121
g164
ag166
ag163
ag161
ag239
ag159
ag160
ag237
asg626
(lp1122
g631
ag624
ag631
ag651
ag625
ag649
asg86
(lp1123
g87
ag695
asg425
(lp1124
g441
ag797
ag680
ag423
asg590
(lp1125
g589
ag653
ag581
asg35
(lp1126
g56
ag55
asg230
(lp1127
g229
ag231
ag233
ag196
asg497
(lp1128
g654
ag493
ag496
ag504
ag492
asg611
(lp1129
g610
ag612
ag606
asg1009
(lp1130
g681
asg336
(lp1131
g337
ag335
asg526
(lp1132
(I291
I320
I316
I339
tp1133
ag528
ag522
ag525
asg177
(lp1134
g258
ag259
ag181
asg495
(lp1135
(I318
I320
I207
I219
tp1136
ag496
ag674
ag494
ag672
asg78
(lp1137
g79
ag80
asg411
(lp1138
g438
ag437
asg381
(lp1139
g459
ag458
asg8
(lp1140
(I108
I111
I151
I154
tp1141
ag120
ag119
asg433
(lp1142
g448
ag685
ag432
ag430
asg410
(lp1143
g427
ag416
ag415
ag427
asg516
(lp1144
g540
ag517
asg361
(lp1145
g360
asg515
(lp1146
g538
ag523
asg202
(lp1147
g203
ag204
asg628
(lp1148
g632
ag630
ag629
ag627
asg5
(lp1149
g7
ag16
asg268
(lp1150
g267
ag266
ag269
asg181
(lp1151
g177
ag180
asg968
(lp1152
g465
as(I418
I421
I298
I304
tp1153
(lp1154
g625
asg534
(lp1155
g535
ag536
ag514
ag533
ag512
asg390
(lp1156
g389
ag391
ag388
asg562
(lp1157
g645
ag561
ag558
asg588
(lp1158
g684
ag589
asg246
(lp1159
g247
ag245
ag248
asg685
(lp1160
g684
ag448
ag433
ag432
ag432
ag683
asg672
(lp1161
g673
ag674
ag495
ag671
ag494
asg814
(lp1162
g604
asg241
(lp1163
(I0
I117
I291
I386
tp1164
ag712
ag232
ag240
ag193
asg127
(lp1165
g169
ag132
ag126
ag131
ag125
asg56
(lp1166
g35
ag55
ag57
asg630
(lp1167
g631
ag632
ag628
asg543
(lp1168
g544
ag676
ag545
ag542
ag565
asg330
(lp1169
g333
ag331
ag362
ag329
asg26
(lp1170
g112
ag113
ag24
asg9
(lp1171
(I94
I97
I175
I183
tp1172
ag12
asg52
(lp1173
g57
ag53
ag41
asg189
(lp1174
g204
ag199
asg607
(lp1175
g643
asg57
(lp1176
g52
ag53
ag58
ag56
asg502
(lp1177
g504
ag503
asg368
(lp1178
g371
ag450
asg517
(lp1179
(I328
I335
I304
I308
tp1180
ag541
ag516
asg226
(lp1181
g225
asg622
(lp1182
g621
ag623
asg67
(lp1183
g695
ag100
ag66
ag98
ag65
ag69
asg480
(lp1184
g481
ag474
ag482
ag475
asg134
(lp1185
g140
ag138
asg404
(lp1186
g406
ag405
ag403
asg635
(lp1187
g634
ag612
ag606
asg389
(lp1188
g388
ag390
ag391
asg697
(lp1189
g698
ag699
ag91
asg42
(lp1190
g43
ag58
ag49
asg119
(lp1191
g255
ag120
ag8
asg3
(lp1192
g4
ag20
asg692
(lp1193
g693
ag25
ag691
ag24
ag113
ag693
ag363
ag691
ag279
asg308
(lp1194
g309
ag366
ag294
ag302
asg488
(lp1195
g489
ag537
ag535
ag487
ag490
asg460
(lp1196
g458
ag459
ag461
ag366
ag304
ag457
ag356
ag357
ag675
ag367
ag355
asg601
(lp1197
g602
ag658
asg75
(lp1198
g695
ag74
ag63
ag70
ag695
ag693
ag73
ag111
asg648
(lp1199
g650
ag649
ag625
asg60
(lp1200
g68
ag903
ag69
asg278
(lp1201
g277
ag279
ag280
asg1029
(lp1202
g498
asg523
(lp1203
g524
ag515
asg152
(lp1204
g151
ag141
ag142
asg424
(lp1205
g441
ag680
asg209
(lp1206
g208
ag210
ag263
ag207
ag261
asg595
(lp1207
g596
ag580
ag594
ag574
asg50
(lp1208
g115
ag1058
ag51
ag103
ag39
ag37
asg521
(lp1209
g528
ag527
asg482
(lp1210
g481
ag480
ag475
asg205
(lp1211
g204
ag206
ag187
ag176
ag203
ag188
ag184
ag183
asg384
(lp1212
g445
ag386
asg208
(lp1213
g209
ag210
asg88
(lp1214
g89
ag90
ag94
ag93
asg496
(lp1215
g497
ag493
ag654
ag675
ag495
ag674
asg360
(lp1216
g361
asg599
(lp1217
g874
ag614
ag604
asg307
(lp1218
g306
ag449
ag267
asg146
(lp1219
g144
ag145
ag166
ag149
asg183
(lp1220
g205
ag227
ag184
ag182
asg65
(lp1221
g66
ag67
ag69
asg374
(lp1222
g376
asg581
(lp1223
g590
ag584
asg239
(lp1224
g238
ag240
ag712
ag172
ag161
ag165
ag237
asg118
(lp1225
g117
ag116
ag21
asg105
(lp1226
g103
ag104
ag106
ag32
ag31
ag107
asg378
(lp1227
g442
ag380
asg573
(lp1228
g574
ag594
asg318
(lp1229
g693
a(I277
I285
I111
I123
tp1230
ag341
ag317
asg418
(lp1231
g461
ag427
ag443
asg266
(lp1232
g267
ag268
asg190
(lp1233
g191
ag200
asg7
(lp1234
g22
ag247
ag6
ag16
ag5
as(I155
I159
I214
I219
tp1235
(lp1236
g178
asg637
(lp1237
g638
ag639
ag621
ag616
asg395
(lp1238
g402
ag396
ag394
asg242
(lp1239
g243
ag173
ag244
ag129
asg437
(lp1240
g436
ag438
ag411
asg467
(lp1241
g468
ag464
asg262
(lp1242
g261
ag263
ag264
ag80
ag79
asg55
(lp1243
g56
ag54
ag35
asg292
(lp1244
g293
ag310
ag284
ag282
asg23
(lp1245
g29
ag689
asg199
(lp1246
g206
ag204
ag189
asg257
(lp1247
g258
ag174
asg4
(lp1248
g22
ag115
ag116
ag21
ag3
ag20
asg231
(lp1249
g230
ag788
ag233
ag213
ag229
ag211
asg291
(lp1250
g290
asg70
(lp1251
g695
ag69
ag75
ag64
ag63
asg608
(lp1252
g609
ag610
asg646
(lp1253
g647
ag633
asg472
(lp1254
g668
ag506
asg569
(lp1255
g568
ag567
ag549
asg383
(lp1256
g385
ag391
asg713
(lp1257
g712
ag528
ag662
ag711
ag513
ag514
ag536
asg625
(lp1258
g1153
ag626
ag649
ag648
asg47
(lp1259
g46
ag101
ag58
ag48
asg288
(lp1260
g287
a(I248
I262
I75
I98
tp1261
ag363
ag286
ag284
asg193
(lp1262
g194
ag232
ag241
ag192
asg518
(lp1263
g656
asg600
(lp1264
g602
ag614
asg96
(lp1265
g97
ag68
asg449
(lp1266
g686
ag267
ag307
ag306
ag299
ag299
ag450
ag402
ag450
ag371
asg544
(lp1267
g543
ag545
ag676
ag677
asg489
(lp1268
g488
ag537
ag509
asg558
(lp1269
g561
ag596
ag559
ag562
asg63
(lp1270
g74
ag75
ag70
ag62
ag64
asg1098
(lp1271
g632
asg115
(lp1272
g22
ag4
ag116
ag114
ag103
ag50
ag116
ag36
asg615
(lp1273
g614
ag643
ag605
asg76
(lp1274
g102
ag77
ag260
asg251
(lp1275
g250
ag252
asg652
(lp1276
g653
ag651
ag631
ag632
ag639
asg162
(lp1277
g169
ag170
asg306
(lp1278
g307
ag449
ag299
asg41
(lp1279
g52
asg186
(lp1280
g185
ag187
ag188
ag178
asg256
(lp1281
g255
ag254
asg459
(lp1282
g460
ag461
ag458
ag381
ag379
asg200
(lp1283
g201
ag232
ag191
ag194
ag190
asg684
(lp1284
g683
ag685
ag588
ag589
ag572
ag570
ag571
asg302
(lp1285
g366
ag303
ag308
ag294
ag295
asg470
(lp1286
g469
ag481
ag463
ag462
asg74
(lp1287
g73
ag1020
ag62
ag63
ag75
ag61
ag72
asg191
(lp1288
g190
ag200
ag194
asg90
(lp1289
g89
ag91
ag699
ag265
ag88
ag94
asg309
(lp1290
g308
ag366
ag310
ag293
asg430
(lp1291
g432
ag433
as(I162
I169
I142
I147
tp1292
(lp1293
g49
asg596
(lp1294
g595
ag594
ag558
ag559
ag563
ag561
asg617
(lp1295
g662
ag661
asg113
(lp1296
g693
ag112
ag692
ag26
ag24
asg537
(lp1297
g536
ag538
ag489
ag509
ag488
ag535
ag509
ag501
asg219
(lp1298
g218
asg576
(lp1299
g580
ag577
ag575
asg542
(lp1300
g543
asg247
(lp1301
g245
ag246
ag248
ag243
ag22
ag7
ag6
asg125
(lp1302
g126
ag127
asg194
(lp1303
g193
ag232
ag200
ag191
asg48
(lp1304
g49
ag58
ag47
asg704
(lp1305
g703
ag491
ag468
ag702
ag464
asg594
(lp1306
g596
ag595
ag574
ag573
asg375
(lp1307
g454
ag376
asg312
(lp1308
g694
ag338
asg185
(lp1309
g186
ag187
ag174
asg566
(lp1310
g567
ag568
asg355
(lp1311
g354
ag356
ag460
ag346
ag367
ag345
asg95
(lp1312
g103
ag104
asg527
(lp1313
g662
ag521
ag520
ag660
asg426
(lp1314
g427
ag461
ag428
asg451
(lp1315
g452
ag453
ag297
ag305
ag296
asg284
(lp1316
g310
ag288
ag283
ag286
ag282
ag292
asg674
(lp1317
g673
ag829
ag675
ag496
ag672
ag495
asg240
(lp1318
g239
ag241
ag238
ag192
asg369
(lp1319
g372
ag393
asg387
(lp1320
g406
ag406
asg282
(lp1321
g283
ag284
ag292
asg587
(lp1322
g650
ag586
ag650
ag585
ag586
ag583
asg1133
(lp1323
g526
asg606
(lp1324
g635
ag611
asg514
(lp1325
g513
ag853
ag713
ag536
ag512
ag534
asg362
(lp1326
g330
ag669
ag331
asg346
(lp1327
g344
ag345
ag355
ag367
ag365
ag359
asg423
(lp1328
g680
ag425
asg546
(lp1329
g548
ag679
asg403
(lp1330
g402
ag401
ag399
ag404
ag398
asg469
(lp1331
g700
ag470
ag702
ag481
as(I155
I162
I142
I147
tp1332
(lp1333
g43
asg511
(lp1334
g513
ag512
ag533
ag532
asg447
(lp1335
g445
ag446
ag434
asg371
(lp1336
g402
ag449
ag450
ag368
ag370
ag372
asg380
(lp1337
g442
ag378
ag379
asg117
(lp1338
g118
ag116
asg570
(lp1339
g1067
ag684
asg539
(lp1340
g503
ag540
asg175
(lp1341
g254
asg420
(lp1342
g461
ag676
ag677
ag419
asg303
(lp1343
g304
ag295
ag302
ag298
asg298
(lp1344
g303
ag305
ag297
asg69
(lp1345
g64
ag70
ag60
ag695
ag67
ag65
asg699
(lp1346
g698
ag700
ag701
ag91
ag697
ag90
ag265
asg364
(lp1347
g363
ag366
ag365
ag693
ag316
ag314
ag358
asg176
(lp1348
g187
ag205
asg40
(lp1349
g39
ag38
asg416
(lp1350
g427
ag408
ag412
ag427
ag410
ag415
asg102
(lp1351
g255
ag100
ag260
ag76
ag81
ag77
asg586
(lp1352
g587
ag587
ag583
ag582
asg367
(lp1353
g366
ag923
ag460
ag355
ag365
ag346
asg54
(lp1354
g255
ag55
asg250
(lp1355
g251
ag252
asg337
(lp1356
g336
asg151
(lp1357
g141
ag152
ag137
asg1141
(lp1358
g8
asg463
(lp1359
g700
ag470
ag462
asg133
(lp1360
g135
ag136
asg168
(lp1361
(I45
I59
I219
I243
tp1362
ag169
ag140
asg285
(lp1363
g286
ag287
ag272
asg455
(lp1364
g454
ag453
ag301
asg579
(lp1365
g578
asg83
(lp1366
g81
ag82
ag100
ag695
ag92
ag84
asg295
(lp1367
g303
ag302
ag294
asg365
(lp1368
g366
ag364
ag358
ag367
ag359
ag346
asg640
(lp1369
g676
ag642
ag641
ag655
ag597
asg163
(lp1370
g164
ag165
ag161
ag155
asg524
(lp1371
g525
ag528
ag536
ag538
ag523
asg373
(lp1372
g454
ag377
asg1172
(lp1373
g9
asg130
(lp1374
g129
ag131
ag126
asg109
(lp1375
g110
ag111
ag73
ag108
ag71
asg317
(lp1376
g341
ag318
asg12
(lp1377
g13
ag11
ag17
ag9
asg405
(lp1378
g406
ag404
asg169
(lp1379
g128
ag127
ag170
ag162
ag168
ag140
ag141
ag139
asg1180
(lp1380
g517
asg474
(lp1381
g480
ag476
ag477
asg438
(lp1382
g411
ag437
ag439
ag421
asg323
(lp1383
g322
ag696
ag335
ag325
asg148
(lp1384
g149
ag167
ag147
asg536
(lp1385
g535
ag537
ag713
ag534
ag514
ag528
ag538
ag524
asg528
(lp1386
g713
ag662
ag536
ag524
ag526
ag522
ag521
asg45
(lp1387
g44
asg656
(lp1388
g655
ag541
ag518
asg160
(lp1389
g165
ag237
asg131
(lp1390
g132
ag127
ag130
ag126
asg400
(lp1391
g401
ag399
asg413
(lp1392
g415
ag414
ag412
asg366
(lp1393
g364
ag365
ag367
ag309
ag310
ag363
ag308
ag302
ag304
ag460
asg269
(lp1394
g268
asg272
(lp1395
g287
ag285
asg211
(lp1396
g212
ag213
ag231
ag229
asg271
(lp1397
g270
ag687
ag289
ag275
asg501
(lp1398
g994
ag537
ag500
asg203
(lp1399
g204
ag205
ag202
asg196
(lp1400
g198
ag230
asg180
(lp1401
g179
ag181
asg682
(lp1402
g680
ag681
ag591
as(I390
I393
I272
I280
tp1403
(lp1404
g560
asg51
(lp1405
g36
ag50
asg669
(lp1406
g670
ag362
asg197
(lp1407
g232
ag201
asg412
(lp1408
g416
ag413
asg578
(lp1409
g1085
ag647
ag579
asg281
(lp1410
g363
ag280
ag287
ag276
ag274
asg605
(lp1411
g643
ag615
asg1109
(lp1412
g571
asg79
(lp1413
g1063
ag264
ag262
ag78
ag80
asg316
(lp1414
g693
ag341
ag364
ag315
asg37
(lp1415
g50
ag39
asg30
(lp1416
g31
ag32
ag27
asg436
(lp1417
g437
ag440
asg454
(lp1418
g453
ag455
ag452
ag392
ag375
ag373
asg356
(lp1419
g355
ag460
ag357
asg476
(lp1420
g475
ag474
ag477
asg629
(lp1421
g639
ag627
ag628
asg510
(lp1422
g775
ag513
ag531
asg32
(lp1423
g114
ag686
ag105
ag31
ag30
ag27
ag687
ag29
asg107
(lp1424
g106
ag105
ag31
asg741
(lp1425
g222
asg662
(lp1426
g713
ag528
ag527
ag661
ag617
ag621
ag639
asg572
(lp1427
g939
ag684
asg687
(lp1428
g686
ag32
ag29
ag689
ag686
ag688
ag270
ag289
ag271
asg31
(lp1429
g30
ag32
ag105
ag107
asg267
(lp1430
g686
ag449
ag268
ag266
ag307
asg598
(lp1431
g614
ag613
asg326
(lp1432
g340
ag327
ag340
asg290
(lp1433
g291
ag289
asg545
(lp1434
g544
ag543
asg535
(lp1435
g533
ag534
ag536
ag490
ag537
ag490
ag488
asg592
(lp1436
g679
ag762
ag548
ag593
ag681
ag591
asg435
(lp1437
g417
ag409
ag434
asg49
(lp1438
g48
ag1292
ag58
ag42
asg121
(lp1439
g13
ag122
ag120
asg478
(lp1440
g477
asg235
(lp1441
g708
ag709
ag236
asg212
(lp1442
g211
ag213
ag214
asg563
(lp1443
g984
ag596
ag561
ag560
asg321
(lp1444
g696
ag322
asg53
(lp1445
g57
ag52
ag58
ag43
asg567
(lp1446
g566
ag568
ag548
ag549
ag569
ag547
asg99
(lp1447
g98
ag100
ag101
ag46
asg531
(lp1448
g711
ag513
ag510
asg259
(lp1449
g260
ag258
ag177
ag224
asg494
(lp1450
g495
ag672
ag671
asg1164
(lp1451
g241
asg1136
(lp1452
g495
asg353
(lp1453
g357
asg310
(lp1454
g366
ag293
ag309
ag363
ag292
ag284
asg616
(lp1455
g621
ag637
asg479
(lp1456
g506
ag477
asg487
(lp1457
g488
ag490
asg464
(lp1458
g704
ag702
ag467
asg448
(lp1459
g398
ag399
ag433
ag685
asg525
(lp1460
g524
ag526
asg158
(lp1461
g1000
ag172
ag157
ag156
asg350
(lp1462
g357
ag352
asg188
(lp1463
g187
ag837
ag205
ag186
ag178
asg243
(lp1464
g242
ag244
ag114
ag22
ag247
asg582
(lp1465
g584
ag583
ag586
asg334
(lp1466
g333
ag343
asg613
(lp1467
g643
ag614
ag598
asg331
(lp1468
g333
ag330
ag362
asg62
(lp1469
g74
ag63
ag64
asg345
(lp1470
g346
ag355
ag344
asg182
(lp1471
g183
asg1362
(lp1472
g168
asg585
(lp1473
g584
ag851
ag653
ag650
ag583
ag587
asg552
(lp1474
g676
ag553
asg406
(lp1475
g404
ag405
ag396
ag382
ag387
ag387
asg593
(lp1476
g592
ag548
ag550
asg43
(lp1477
g42
ag1332
ag58
ag53
asg711
(lp1478
g712
ag710
ag529
ag713
ag531
ag513
asg529
(lp1479
g711
ag708
ag530
ag710
asg340
(lp1480
g339
ag696
ag335
ag326
ag326
asg1261
(lp1481
g288
asg332
(lp1482
g343
ag333
asg943
(lp1483
g462
asg456
(lp1484
g457
ag458
asg519
(lp1485
g657
asg391
(lp1486
g390
ag389
ag383
asg504
(lp1487
g654
ag492
ag497
ag654
ag502
ag503
ag498
ag499
asg639
(lp1488
g662
ag621
ag637
ag652
ag638
ag629
asg533
(lp1489
g535
ag534
ag512
ag532
ag511
asg440
(lp1490
g439
ag441
ag436
asg541
(lp1491
g654
ag656
ag540
ag517
asg221
(lp1492
g220
ag222
ag263
ag701
ag702
ag223
asg642
(lp1493
g640
ag641
ag676
ag555
asg481
(lp1494
g480
ag482
ag470
ag468
ag466
ag469
ag465
asg654
(lp1495
g676
ag655
ag540
ag541
ag497
ag504
ag496
ag675
ag504
ag503
asg698
(lp1496
g697
ag699
ag700
asg396
(lp1497
g406
ag382
ag395
asg294
(lp1498
g308
ag302
ag295
asg149
(lp1499
g148
ag166
ag146
asg85
(lp1500
g695
asg548
(lp1501
g567
ag549
ag546
ag679
ag592
ag593
ag550
asg676
(lp1502
g675
ag461
ag420
ag677
ag675
ag654
ag655
ag640
ag677
ag544
ag543
ag565
ag565
ag552
ag555
ag642
asg634
(lp1503
g635
asg458
(lp1504
g457
ag460
ag459
ag381
ag456
asg610
(lp1505
g611
ag609
ag612
ag608
asg106
(lp1506
g105
ag107
ag104
ag59
asg707
(lp1507
g831
ag708
asg530
(lp1508
g529
asg422
(lp1509
g441
ag439
asg178
(lp1510
g1235
ag188
ag186
asg344
(lp1511
g346
ag345
asg638
(lp1512
g637
ag1048
ag639
asg432
(lp1513
g685
ag430
ag433
ag685
ag683
ag431
asg560
(lp1514
g1403
ag561
ag563
asg276
(lp1515
g280
ag281
ag274
ag273
asg87
(lp1516
g86
ag695
ag92
asg156
(lp1517
g1081
ag157
ag158
asg609
(lp1518
g608
ag610
asg696
(lp1519
g695
ag694
ag338
ag340
ag321
ag323
ag335
asg468
(lp1520
g467
ag704
ag481
ag466
asg1230
(lp1521
g318
asg33
(lp1522
g116
ag36
ag34
asg116
(lp1523
g115
ag4
ag21
ag118
ag115
ag117
ag36
ag33
asg358
(lp1524
g365
ag364
ag314
asg641
(lp1525
g642
ag640
asg25
(lp1526
g24
ag692
ag691
asg21
(lp1527
g4
ag20
ag116
ag118
asg557
(lp1528
g568
ag556
asg421
(lp1529
g439
ag438
ass.